target datalayout = "e-m:e-p270:32:32-p271:32:32-p272:64:64-i64:64-i128:128-f80:128-n8:16:32:64-S128"
target triple = "x86_64-pc-linux-gnu"

%struct.H2645SEI = type { %struct.H2645SEIA53Caption, %struct.H2645SEIAFD, %struct.HEVCSEIDynamicHDRPlus, %struct.HEVCSEIDynamicHDRVivid, %struct.HEVCSEILCEVC, %struct.H2645SEIUnregistered, %struct.H2645SEIFramePacking, %struct.H2645SEIDisplayOrientation, %struct.H2645SEIAlternativeTransfer, %struct.H2645SEIAmbientViewingEnvironment, %struct.H2645SEIMasteringDisplay, %struct.H2645SEIContentLight, %struct.AVFilmGrainAFGS1Params, ptr }
%struct.H2645SEIA53Caption = type { ptr }
%struct.H2645SEIAFD = type { i32, i8 }
%struct.HEVCSEIDynamicHDRPlus = type { ptr }
%struct.HEVCSEIDynamicHDRVivid = type { ptr }
%struct.HEVCSEILCEVC = type { ptr }
%struct.H2645SEIUnregistered = type { ptr, i32, i32 }
%struct.H2645SEIFramePacking = type { i32, i32, i32, i32, i32, i32, i32, i32 }
%struct.H2645SEIDisplayOrientation = type { i32, i32, i32, i32 }
%struct.H2645SEIAlternativeTransfer = type { i32, i32 }
%struct.H2645SEIAmbientViewingEnvironment = type { i32, i32, i16, i16 }
%struct.H2645SEIMasteringDisplay = type { i32, [3 x [2 x i16]], [2 x i16], i32, i32 }
%struct.H2645SEIContentLight = type { i32, i16, i16 }
%struct.AVFilmGrainAFGS1Params = type { i32, [8 x ptr] }

; Function Attrs: nounwind uwtable
define void @ff_h2645_sei_reset(ptr noundef %0) #0 {
  %2 = alloca ptr, align 8
  %3 = alloca i32, align 4
  store ptr %0, ptr %2, align 8, !tbaa !4
  %4 = load ptr, ptr %2, align 8, !tbaa !4
  %5 = getelementptr inbounds nuw %struct.H2645SEI, ptr %4, i32 0, i32 0
  %6 = getelementptr inbounds nuw %struct.H2645SEIA53Caption, ptr %5, i32 0, i32 0
  call void @av_buffer_unref(ptr noundef %6)
  call void @llvm.lifetime.start.p0(i64 4, ptr %3) #10
  store i32 0, ptr %3, align 4, !tbaa !9
  br label %7

7:                                                ; preds = %23, %1
  %8 = load i32, ptr %3, align 4, !tbaa !9
  %9 = load ptr, ptr %2, align 8, !tbaa !4
  %10 = getelementptr inbounds nuw %struct.H2645SEI, ptr %9, i32 0, i32 5
  %11 = getelementptr inbounds nuw %struct.H2645SEIUnregistered, ptr %10, i32 0, i32 1
  %12 = load i32, ptr %11, align 8, !tbaa !113
  %13 = icmp ult i32 %8, %12
  br i1 %13, label %15, label %14

14:                                               ; preds = %7
  call void @llvm.lifetime.end.p0(i64 4, ptr %3) #10
  br label %26

15:                                               ; preds = %7
  %16 = load ptr, ptr %2, align 8, !tbaa !4
  %17 = getelementptr inbounds nuw %struct.H2645SEI, ptr %16, i32 0, i32 5
  %18 = getelementptr inbounds nuw %struct.H2645SEIUnregistered, ptr %17, i32 0, i32 0
  %19 = load ptr, ptr %18, align 8, !tbaa !114
  %20 = load i32, ptr %3, align 4, !tbaa !9
  %21 = zext i32 %20 to i64
  %22 = getelementptr inbounds nuw ptr, ptr %19, i64 %21
  call void @av_buffer_unref(ptr noundef %22)
  br label %23

23:                                               ; preds = %15
  %24 = load i32, ptr %3, align 4, !tbaa !9
  %25 = add i32 %24, 1
  store i32 %25, ptr %3, align 4, !tbaa !9
  br label %7, !llvm.loop !232

26:                                               ; preds = %14
  %27 = load ptr, ptr %2, align 8, !tbaa !4
  %28 = getelementptr inbounds nuw %struct.H2645SEI, ptr %27, i32 0, i32 5
  %29 = getelementptr inbounds nuw %struct.H2645SEIUnregistered, ptr %28, i32 0, i32 1
  store i32 0, ptr %29, align 8, !tbaa !113
  %30 = load ptr, ptr %2, align 8, !tbaa !4
  %31 = getelementptr inbounds nuw %struct.H2645SEI, ptr %30, i32 0, i32 5
  %32 = getelementptr inbounds nuw %struct.H2645SEIUnregistered, ptr %31, i32 0, i32 0
  call void @av_freep(ptr noundef %32)
  %33 = load ptr, ptr %2, align 8, !tbaa !4
  %34 = getelementptr inbounds nuw %struct.H2645SEI, ptr %33, i32 0, i32 2
  %35 = getelementptr inbounds nuw %struct.HEVCSEIDynamicHDRPlus, ptr %34, i32 0, i32 0
  call void @av_buffer_unref(ptr noundef %35)
  %36 = load ptr, ptr %2, align 8, !tbaa !4
  %37 = getelementptr inbounds nuw %struct.H2645SEI, ptr %36, i32 0, i32 3
  %38 = getelementptr inbounds nuw %struct.HEVCSEIDynamicHDRVivid, ptr %37, i32 0, i32 0
  call void @av_buffer_unref(ptr noundef %38)
  %39 = load ptr, ptr %2, align 8, !tbaa !4
  %40 = getelementptr inbounds nuw %struct.H2645SEI, ptr %39, i32 0, i32 4
  %41 = getelementptr inbounds nuw %struct.HEVCSEILCEVC, ptr %40, i32 0, i32 0
  call void @av_buffer_unref(ptr noundef %41)
  %42 = load ptr, ptr %2, align 8, !tbaa !4
  %43 = getelementptr inbounds nuw %struct.H2645SEI, ptr %42, i32 0, i32 9
  %44 = getelementptr inbounds nuw %struct.H2645SEIAmbientViewingEnvironment, ptr %43, i32 0, i32 0
  store i32 0, ptr %44, align 8, !tbaa !204
  %45 = load ptr, ptr %2, align 8, !tbaa !4
  %46 = getelementptr inbounds nuw %struct.H2645SEI, ptr %45, i32 0, i32 10
  %47 = getelementptr inbounds nuw %struct.H2645SEIMasteringDisplay, ptr %46, i32 0, i32 0
  store i32 0, ptr %47, align 4, !tbaa !208
  %48 = load ptr, ptr %2, align 8, !tbaa !4
  %49 = getelementptr inbounds nuw %struct.H2645SEI, ptr %48, i32 0, i32 11
  %50 = getelementptr inbounds nuw %struct.H2645SEIContentLight, ptr %49, i32 0, i32 0
  store i32 0, ptr %50, align 8, !tbaa !224
  %51 = load ptr, ptr %2, align 8, !tbaa !4
  %52 = getelementptr inbounds nuw %struct.H2645SEI, ptr %51, i32 0, i32 13
  call void @av_refstruct_unref(ptr noundef %52)
  %53 = load ptr, ptr %2, align 8, !tbaa !4
  %54 = getelementptr inbounds nuw %struct.H2645SEI, ptr %53, i32 0, i32 12
  call void @ff_aom_uninit_film_grain_params(ptr noundef %54)
  ret void
}