; Function Attrs: nounwind uwtable
define void @ff_h2645_sei_reset(ptr noundef %0) local_unnamed_addr #0 {
  tail call void @av_buffer_unref(ptr noundef %0) #9
  %2 = getelementptr inbounds nuw i8, ptr %0, i64 40
  %3 = getelementptr inbounds nuw i8, ptr %0, i64 48
  %4 = load i32, ptr %3, align 8, !tbaa !93
  %.not = icmp eq i32 %4, 0
  br i1 %.not, label %._crit_edge, label %.lr.ph

._crit_edge:                                      ; preds = %.lr.ph, %1
  store i32 0, ptr %3, align 8, !tbaa !93
  tail call void @av_freep(ptr noundef nonnull %2) #9
  %5 = getelementptr inbounds nuw i8, ptr %0, i64 16
  tail call void @av_buffer_unref(ptr noundef nonnull %5) #9
  %6 = getelementptr inbounds nuw i8, ptr %0, i64 24
  tail call void @av_buffer_unref(ptr noundef nonnull %6) #9
  %7 = getelementptr inbounds nuw i8, ptr %0, i64 32
  tail call void @av_buffer_unref(ptr noundef nonnull %7) #9
  %8 = getelementptr inbounds nuw i8, ptr %0, i64 112
  store i32 0, ptr %8, align 8, !tbaa !159
  %9 = getelementptr inbounds nuw i8, ptr %0, i64 124
  store i32 0, ptr %9, align 4, !tbaa !162
  %10 = getelementptr inbounds nuw i8, ptr %0, i64 152
  store i32 0, ptr %10, align 8, !tbaa !178
  %11 = getelementptr inbounds nuw i8, ptr %0, i64 232
  tail call void @av_refstruct_unref(ptr noundef nonnull %11) #9
  %12 = getelementptr inbounds nuw i8, ptr %0, i64 160
  tail call void @ff_aom_uninit_film_grain_params(ptr noundef nonnull %12) #9
  ret void

.lr.ph:                                           ; preds = %1, %.lr.ph
  %indvars.iv = phi i64 [ %indvars.iv.next, %.lr.ph ], [ 0, %1 ]
  %13 = load ptr, ptr %2, align 8, !tbaa !95
  %14 = getelementptr inbounds nuw ptr, ptr %13, i64 %indvars.iv
  tail call void @av_buffer_unref(ptr noundef %14) #9
  %indvars.iv.next = add nuw nsw i64 %indvars.iv, 1
  %15 = load i32, ptr %3, align 8, !tbaa !93
  %16 = zext i32 %15 to i64
  %17 = icmp samesign ult i64 %indvars.iv.next, %16
  br i1 %17, label %.lr.ph, label %._crit_edge, !llvm.loop !186
}